; Function Attrs: mustprogress uwtable
define hidden void @_ZN20eliminate_predicates6reduceEv(ptr noundef nonnull align 8 dereferenceable(400) %0) unnamed_addr #3 align 2 {
  tail call void @_ZN20eliminate_predicates5resetEv(ptr noundef nonnull align 8 dereferenceable(400) %0)
  tail call void @_ZN20eliminate_predicates12init_clausesEv(ptr noundef nonnull align 8 dereferenceable(400) %0)
  %2 = getelementptr inbounds nuw i8, ptr %0, i64 208
  %3 = load ptr, ptr %2, align 8, !tbaa !58
  %4 = icmp eq ptr %3, null
  br i1 %4, label %._crit_edge.i, label %_ZN6vectorIP9func_declLb0EjE3endEv.exit.i

_ZN6vectorIP9func_declLb0EjE3endEv.exit.i:        ; preds = %1
  %5 = getelementptr inbounds i8, ptr %3, i64 -4
  %6 = load i32, ptr %5, align 4, !tbaa !14
  %7 = zext i32 %6 to i64
  %8 = getelementptr inbounds nuw ptr, ptr %3, i64 %7
  %.not17.i = icmp eq i32 %6, 0
  br i1 %.not17.i, label %._crit_edge.i, label %.lr.ph.i

._crit_edge.i:                                    ; preds = %.lr.ph.i, %_ZN6vectorIP9func_declLb0EjE3endEv.exit.i, %1
  %9 = getelementptr inbounds nuw i8, ptr %0, i64 32
  %10 = load ptr, ptr %9, align 8, !tbaa !35
  %11 = icmp eq ptr %10, null
  br i1 %11, label %_ZN20eliminate_predicates16find_definitionsEv.exit, label %_ZNK17scoped_ptr_vectorIN20eliminate_predicates6clauseEE3endEv.exit.i

_ZNK17scoped_ptr_vectorIN20eliminate_predicates6clauseEE3endEv.exit.i: ; preds = %._crit_edge.i
  %12 = getelementptr inbounds i8, ptr %10, i64 -4
  %13 = load i32, ptr %12, align 4, !tbaa !14
  %14 = zext i32 %13 to i64
  %15 = getelementptr inbounds nuw ptr, ptr %10, i64 %14
  %.not1619.i = icmp eq i32 %13, 0
  br i1 %.not1619.i, label %_ZN20eliminate_predicates16find_definitionsEv.exit, label %.lr.ph21.i

.lr.ph.i:                                         ; preds = %_ZN6vectorIP9func_declLb0EjE3endEv.exit.i, %.lr.ph.i
  %.018.i = phi ptr [ %17, %.lr.ph.i ], [ %3, %_ZN6vectorIP9func_declLb0EjE3endEv.exit.i ]
  %16 = load ptr, ptr %.018.i, align 8, !tbaa !81
  tail call void @_ZN20eliminate_predicates22try_resolve_definitionEP9func_decl(ptr noundef nonnull align 8 dereferenceable(400) %0, ptr noundef %16)
  %17 = getelementptr inbounds nuw i8, ptr %.018.i, i64 8
  %.not.i = icmp eq ptr %17, %8
  br i1 %.not.i, label %._crit_edge.i, label %.lr.ph.i

.lr.ph21.i:                                       ; preds = %_ZNK17scoped_ptr_vectorIN20eliminate_predicates6clauseEE3endEv.exit.i, %.lr.ph21.i
  %.01520.i = phi ptr [ %19, %.lr.ph21.i ], [ %10, %_ZNK17scoped_ptr_vectorIN20eliminate_predicates6clauseEE3endEv.exit.i ]
  %18 = load ptr, ptr %.01520.i, align 8, !tbaa !61
  tail call void @_ZN20eliminate_predicates14try_find_macroERNS_6clauseE(ptr noundef nonnull align 8 dereferenceable(400) %0, ptr noundef nonnull align 8 dereferenceable(53) %18)
  %19 = getelementptr inbounds nuw i8, ptr %.01520.i, i64 8
  %.not16.i = icmp eq ptr %19, %15
  br i1 %.not16.i, label %_ZN20eliminate_predicates16find_definitionsEv.exit, label %.lr.ph21.i

_ZN20eliminate_predicates16find_definitionsEv.exit: ; preds = %.lr.ph21.i, %._crit_edge.i, %_ZNK17scoped_ptr_vectorIN20eliminate_predicates6clauseEE3endEv.exit.i
  tail call void @_ZN20eliminate_predicates18reduce_definitionsEv(ptr noundef nonnull align 8 dereferenceable(400) %0)
  %20 = load ptr, ptr %2, align 8, !tbaa !58
  %21 = icmp eq ptr %20, null
  br i1 %21, label %_ZN20eliminate_predicates11try_resolveEv.exit, label %_ZN6vectorIP9func_declLb0EjE3endEv.exit.i1

_ZN6vectorIP9func_declLb0EjE3endEv.exit.i1:       ; preds = %_ZN20eliminate_predicates16find_definitionsEv.exit
  %22 = getelementptr inbounds i8, ptr %20, i64 -4
  %23 = load i32, ptr %22, align 4, !tbaa !14
  %24 = zext i32 %23 to i64
  %25 = getelementptr inbounds nuw ptr, ptr %20, i64 %24
  %.not8.i = icmp eq i32 %23, 0
  br i1 %.not8.i, label %_ZN20eliminate_predicates11try_resolveEv.exit, label %.lr.ph.i2

.lr.ph.i2:                                        ; preds = %_ZN6vectorIP9func_declLb0EjE3endEv.exit.i1, %.lr.ph.i2
  %.09.i = phi ptr [ %27, %.lr.ph.i2 ], [ %20, %_ZN6vectorIP9func_declLb0EjE3endEv.exit.i1 ]
  %26 = load ptr, ptr %.09.i, align 8, !tbaa !81
  tail call void @_ZN20eliminate_predicates11try_resolveEP9func_decl(ptr noundef nonnull align 8 dereferenceable(400) %0, ptr noundef %26)
  %27 = getelementptr inbounds nuw i8, ptr %.09.i, i64 8
  %.not.i3 = icmp eq ptr %27, %25
  br i1 %.not.i3, label %_ZN20eliminate_predicates11try_resolveEv.exit, label %.lr.ph.i2

_ZN20eliminate_predicates11try_resolveEv.exit:    ; preds = %.lr.ph.i2, %_ZN20eliminate_predicates16find_definitionsEv.exit, %_ZN6vectorIP9func_declLb0EjE3endEv.exit.i1
  tail call void @_ZN20eliminate_predicates9decompileEv(ptr noundef nonnull align 8 dereferenceable(400) %0)
  tail call void @_ZN20eliminate_predicates5resetEv(ptr noundef nonnull align 8 dereferenceable(400) %0)
  ret void
}